target datalayout = "e-m:e-p270:32:32-p271:32:32-p272:64:64-i64:64-i128:128-f80:128-n8:16:32:64-S128"
target triple = "x86_64-pc-linux-gnu"

; Function Attrs: inlinehint nounwind uwtable
define internal i64 @_Py_HashPointerRaw(ptr noundef %0) #4 {
  %2 = alloca ptr, align 8
  %3 = alloca i64, align 8
  store ptr %0, ptr %2, align 8, !tbaa !17
  call void @llvm.lifetime.start.p0(i64 8, ptr %3) #6
  %4 = load ptr, ptr %2, align 8, !tbaa !17
  %5 = ptrtoint ptr %4 to i64
  store i64 %5, ptr %3, align 8, !tbaa !13
  br label %6

6:                                                ; preds = %1
  br label %7

7:                                                ; preds = %6
  br label %8

8:                                                ; preds = %7
  %9 = load i64, ptr %3, align 8, !tbaa !13
  %10 = lshr i64 %9, 4
  %11 = load i64, ptr %3, align 8, !tbaa !13
  %12 = shl i64 %11, 60
  %13 = or i64 %10, %12
  store i64 %13, ptr %3, align 8, !tbaa !13
  br label %14

14:                                               ; preds = %8
  br label %15

15:                                               ; preds = %14
  br label %16

16:                                               ; preds = %15
  %17 = load i64, ptr %3, align 8, !tbaa !13
  call void @llvm.lifetime.end.p0(i64 8, ptr %3) #6
  ret i64 %17
}

; Function Attrs: nounwind uwtable
define dso_local i64 @Py_HashPointer(ptr noundef %0) #0 {
  %2 = alloca ptr, align 8
  %3 = alloca i64, align 8
  store ptr %0, ptr %2, align 8, !tbaa !17
  call void @llvm.lifetime.start.p0(i64 8, ptr %3) #6
  %4 = load ptr, ptr %2, align 8, !tbaa !17
  %5 = call i64 @_Py_HashPointerRaw(ptr noundef %4)
  store i64 %5, ptr %3, align 8, !tbaa !13
  %6 = load i64, ptr %3, align 8, !tbaa !13
  %7 = icmp eq i64 %6, -1
  br i1 %7, label %8, label %9

8:                                                ; preds = %1
  store i64 -2, ptr %3, align 8, !tbaa !13
  br label %9

9:                                                ; preds = %8, %1
  %10 = load i64, ptr %3, align 8, !tbaa !13
  call void @llvm.lifetime.end.p0(i64 8, ptr %3) #6
  ret i64 %10
}

; Function Attrs: nounwind uwtable
define dso_local i64 @PyObject_GenericHash(ptr noundef %0) #0 {
  %2 = alloca ptr, align 8
  store ptr %0, ptr %2, align 8, !tbaa !4
  %3 = load ptr, ptr %2, align 8, !tbaa !4
  %4 = call i64 @Py_HashPointer(ptr noundef %3)
  ret i64 %4
}

; Function Attrs: nounwind uwtable
define dso_local i64 @_Py_HashDouble(ptr noundef %0, double noundef %1) #0 {
  %3 = alloca i64, align 8
  %4 = alloca ptr, align 8
  %5 = alloca double, align 8
  %6 = alloca i32, align 4
  %7 = alloca i32, align 4
  %8 = alloca double, align 8
  %9 = alloca i64, align 8
  %10 = alloca i64, align 8
  %11 = alloca i32, align 4
  store ptr %0, ptr %4, align 8, !tbaa !4
  store double %1, ptr %5, align 8, !tbaa !9
  call void @llvm.lifetime.start.p0(i64 4, ptr %6) #6
  call void @llvm.lifetime.start.p0(i64 4, ptr %7) #6
  call void @llvm.lifetime.start.p0(i64 8, ptr %8) #6
  call void @llvm.lifetime.start.p0(i64 8, ptr %9) #6
  call void @llvm.lifetime.start.p0(i64 8, ptr %10) #6
  %12 = load double, ptr %5, align 8, !tbaa !9
  %13 = call i1 @llvm.is.fpclass.f64(double %12, i32 504)
  br i1 %13, label %31, label %14

14:                                               ; preds = %2
  %15 = load double, ptr %5, align 8, !tbaa !9
  %16 = call double @llvm.fabs.f64(double %15) #7
  %17 = fcmp oeq double %16, 0x7FF0000000000000
  %18 = bitcast double %15 to i64
  %19 = icmp slt i64 %18, 0
  %20 = select i1 %19, i32 -1, i32 1
  %21 = select i1 %17, i32 %20, i32 0
  %22 = icmp ne i32 %21, 0
  br i1 %22, label %23, label %28

23:                                               ; preds = %14
  %24 = load double, ptr %5, align 8, !tbaa !9
  %25 = fcmp ogt double %24, 0.000000e+00
  %26 = select i1 %25, i32 314159, i32 -314159
  %27 = sext i32 %26 to i64
  store i64 %27, ptr %3, align 8
  store i32 1, ptr %11, align 4
  br label %102

28:                                               ; preds = %14
  %29 = load ptr, ptr %4, align 8, !tbaa !4
  %30 = call i64 @PyObject_GenericHash(ptr noundef %29)
  store i64 %30, ptr %3, align 8
  store i32 1, ptr %11, align 4
  br label %102

31:                                               ; preds = %2
  %32 = load double, ptr %5, align 8, !tbaa !9
  %33 = call double @frexp(double noundef %32, ptr noundef %6) #6
  store double %33, ptr %8, align 8, !tbaa !9
  store i32 1, ptr %7, align 4, !tbaa !11
  %34 = load double, ptr %8, align 8, !tbaa !9
  %35 = fcmp olt double %34, 0.000000e+00
  br i1 %35, label %36, label %39

36:                                               ; preds = %31
  store i32 -1, ptr %7, align 4, !tbaa !11
  %37 = load double, ptr %8, align 8, !tbaa !9
  %38 = fneg double %37
  store double %38, ptr %8, align 8, !tbaa !9
  br label %39

39:                                               ; preds = %36, %31
  store i64 0, ptr %9, align 8, !tbaa !13
  br label %40

40:                                               ; preds = %68, %39
  %41 = load double, ptr %8, align 8, !tbaa !9
  %42 = fcmp une double %41, 0.000000e+00
  br i1 %42, label %43, label %69

43:                                               ; preds = %40
  %44 = load i64, ptr %9, align 8, !tbaa !13
  %45 = shl i64 %44, 28
  %46 = and i64 %45, 2305843009213693951
  %47 = load i64, ptr %9, align 8, !tbaa !13
  %48 = lshr i64 %47, 33
  %49 = or i64 %46, %48
  store i64 %49, ptr %9, align 8, !tbaa !13
  %50 = load double, ptr %8, align 8, !tbaa !9
  %51 = fmul double %50, 0x41B0000000000000
  store double %51, ptr %8, align 8, !tbaa !9
  %52 = load i32, ptr %6, align 4, !tbaa !11
  %53 = sub i32 %52, 28
  store i32 %53, ptr %6, align 4, !tbaa !11
  %54 = load double, ptr %8, align 8, !tbaa !9
  %55 = fptoui double %54 to i64
  store i64 %55, ptr %10, align 8, !tbaa !13
  %56 = load i64, ptr %10, align 8, !tbaa !13
  %57 = uitofp i64 %56 to double
  %58 = load double, ptr %8, align 8, !tbaa !9
  %59 = fsub double %58, %57
  store double %59, ptr %8, align 8, !tbaa !9
  %60 = load i64, ptr %10, align 8, !tbaa !13
  %61 = load i64, ptr %9, align 8, !tbaa !13
  %62 = add i64 %61, %60
  store i64 %62, ptr %9, align 8, !tbaa !13
  %63 = load i64, ptr %9, align 8, !tbaa !13
  %64 = icmp uge i64 %63, 2305843009213693951
  br i1 %64, label %65, label %68

65:                                               ; preds = %43
  %66 = load i64, ptr %9, align 8, !tbaa !13
  %67 = sub i64 %66, 2305843009213693951
  store i64 %67, ptr %9, align 8, !tbaa !13
  br label %68

68:                                               ; preds = %65, %43
  br label %40, !llvm.loop !15

69:                                               ; preds = %40
  %70 = load i32, ptr %6, align 4, !tbaa !11
  %71 = icmp sge i32 %70, 0
  br i1 %71, label %72, label %75

72:                                               ; preds = %69
  %73 = load i32, ptr %6, align 4, !tbaa !11
  %74 = srem i32 %73, 61
  br label %80

75:                                               ; preds = %69
  %76 = load i32, ptr %6, align 4, !tbaa !11
  %77 = sub i32 -1, %76
  %78 = srem i32 %77, 61
  %79 = sub i32 60, %78
  br label %80

80:                                               ; preds = %75, %72
  %81 = phi i32 [ %74, %72 ], [ %79, %75 ]
  store i32 %81, ptr %6, align 4, !tbaa !11
  %82 = load i64, ptr %9, align 8, !tbaa !13
  %83 = load i32, ptr %6, align 4, !tbaa !11
  %84 = zext i32 %83 to i64
  %85 = shl i64 %82, %84
  %86 = and i64 %85, 2305843009213693951
  %87 = load i64, ptr %9, align 8, !tbaa !13
  %88 = load i32, ptr %6, align 4, !tbaa !11
  %89 = sub i32 61, %88
  %90 = zext i32 %89 to i64
  %91 = lshr i64 %87, %90
  %92 = or i64 %86, %91
  store i64 %92, ptr %9, align 8, !tbaa !13
  %93 = load i64, ptr %9, align 8, !tbaa !13
  %94 = load i32, ptr %7, align 4, !tbaa !11
  %95 = sext i32 %94 to i64
  %96 = mul i64 %93, %95
  store i64 %96, ptr %9, align 8, !tbaa !13
  %97 = load i64, ptr %9, align 8, !tbaa !13
  %98 = icmp eq i64 %97, -1
  br i1 %98, label %99, label %100

99:                                               ; preds = %80
  store i64 -2, ptr %9, align 8, !tbaa !13
  br label %100

100:                                              ; preds = %99, %80
  %101 = load i64, ptr %9, align 8, !tbaa !13
  store i64 %101, ptr %3, align 8
  store i32 1, ptr %11, align 4
  br label %102

102:                                              ; preds = %100, %28, %23
  call void @llvm.lifetime.end.p0(i64 8, ptr %10) #6
  call void @llvm.lifetime.end.p0(i64 8, ptr %9) #6
  call void @llvm.lifetime.end.p0(i64 8, ptr %8) #6
  call void @llvm.lifetime.end.p0(i64 4, ptr %7) #6
  call void @llvm.lifetime.end.p0(i64 4, ptr %6) #6
  %103 = load i64, ptr %3, align 8
  ret i64 %103
}