; Function Attrs: nofree nosync nounwind memory(none) uwtable
define dso_local i64 @_Py_HashDouble(ptr noundef %0, double noundef %1) local_unnamed_addr #0 {
  %3 = alloca i32, align 4
  call void @llvm.lifetime.start.p0(i64 4, ptr nonnull %3) #9
  %4 = tail call double @llvm.fabs.f64(double %1)
  %5 = fcmp ueq double %4, 0x7FF0000000000000
  br i1 %5, label %6, label %14

6:                                                ; preds = %2
  %7 = fcmp oeq double %4, 0x7FF0000000000000
  br i1 %7, label %8, label %11

8:                                                ; preds = %6
  %9 = fcmp ogt double %1, 0.000000e+00
  %10 = select i1 %9, i64 314159, i64 -314159
  br label %51

11:                                               ; preds = %6
  %12 = ptrtoint ptr %0 to i64
  %13 = tail call noundef i64 @llvm.fshl.i64(i64 %12, i64 %12, i64 60)
  %spec.store.select.i.i = tail call noundef range(i64 0, -1) i64 @llvm.umin.i64(i64 %13, i64 -2)
  br label %51

14:                                               ; preds = %2
  %15 = call double @frexp(double noundef %1, ptr noundef nonnull %3) #9
  %16 = fcmp olt double %15, 0.000000e+00
  %.promoted = load i32, ptr %3, align 4
  %17 = fcmp une double %15, 0.000000e+00
  br i1 %17, label %.lr.ph.preheader, label %._crit_edge

.lr.ph.preheader:                                 ; preds = %14
  %18 = fneg double %15
  %.025 = select i1 %16, double %18, double %15
  br label %.lr.ph

.lr.ph:                                           ; preds = %.lr.ph.preheader, %.lr.ph
  %.02435 = phi i64 [ %spec.select, %.lr.ph ], [ 0, %.lr.ph.preheader ]
  %.12634 = phi double [ %28, %.lr.ph ], [ %.025, %.lr.ph.preheader ]
  %19 = phi i32 [ %25, %.lr.ph ], [ %.promoted, %.lr.ph.preheader ]
  %20 = shl i64 %.02435, 28
  %21 = and i64 %20, 2305843008945258496
  %22 = lshr i64 %.02435, 33
  %23 = or i64 %21, %22
  %24 = fmul double %.12634, 0x41B0000000000000
  %25 = add i32 %19, -28
  %26 = fptoui double %24 to i64
  %27 = uitofp i64 %26 to double
  %28 = fsub double %24, %27
  %29 = add i64 %23, %26
  %30 = icmp ugt i64 %29, 2305843009213693950
  %31 = add i64 %29, -2305843009213693951
  %spec.select = select i1 %30, i64 %31, i64 %29
  %32 = fcmp une double %28, 0.000000e+00
  br i1 %32, label %.lr.ph, label %._crit_edge, !llvm.loop !4

._crit_edge:                                      ; preds = %.lr.ph, %14
  %.lcssa = phi i32 [ %.promoted, %14 ], [ %25, %.lr.ph ]
  %.024.lcssa = phi i64 [ 0, %14 ], [ %spec.select, %.lr.ph ]
  %33 = icmp sgt i32 %.lcssa, -1
  br i1 %33, label %34, label %36

34:                                               ; preds = %._crit_edge
  %35 = urem i32 %.lcssa, 61
  br label %40

36:                                               ; preds = %._crit_edge
  %37 = xor i32 %.lcssa, -1
  %38 = urem i32 %37, 61
  %39 = sub nuw nsw i32 60, %38
  br label %40

40:                                               ; preds = %36, %34
  %41 = phi i32 [ %35, %34 ], [ %39, %36 ]
  %42 = zext nneg i32 %41 to i64
  %43 = shl i64 %.024.lcssa, %42
  %44 = and i64 %43, 2305843009213693951
  %45 = sub nuw nsw i32 61, %41
  %46 = zext nneg i32 %45 to i64
  %47 = lshr i64 %.024.lcssa, %46
  %48 = or i64 %44, %47
  %49 = sub nsw i64 0, %48
  %50 = select i1 %16, i64 %49, i64 %48
  %spec.store.select = tail call i64 @llvm.umin.i64(i64 %50, i64 -2)
  br label %51

51:                                               ; preds = %40, %11, %8
  %.0 = phi i64 [ %spec.store.select, %40 ], [ %10, %8 ], [ %spec.store.select.i.i, %11 ]
  call void @llvm.lifetime.end.p0(i64 4, ptr nonnull %3) #9
  ret i64 %.0
}